target datalayout = "e-m:e-p270:32:32-p271:32:32-p272:64:64-i64:64-i128:128-f80:128-n8:16:32:64-S128"
target triple = "x86_64-unknown-linux-gnu"

%"class.std::__shared_ptr" = type { ptr, %"class.std::__shared_count" }
%"class.std::__shared_count" = type { ptr }
%"class.rocksdb::TransactionDBMutexImpl" = type { %"class.rocksdb::TransactionDBMutex", %"class.std::mutex" }
%"class.rocksdb::TransactionDBMutex" = type { ptr }
%"class.std::mutex" = type { %"class.std::__mutex_base" }
%"class.std::__mutex_base" = type { %union.pthread_mutex_t }
%union.pthread_mutex_t = type { %struct.__pthread_mutex_s }
%struct.__pthread_mutex_s = type { i32, i32, i32, i32, i32, i16, i16, %struct.__pthread_internal_list }
%struct.__pthread_internal_list = type { ptr, ptr }
%"class.rocksdb::TransactionDBCondVarImpl" = type { %"class.rocksdb::TransactionDBCondVar", %"class.std::condition_variable" }
%"class.rocksdb::TransactionDBCondVar" = type { ptr }
%"class.std::condition_variable" = type { %"class.std::__condvar" }
%"class.std::__condvar" = type { %union.pthread_cond_t }
%union.pthread_cond_t = type { %struct.__pthread_cond_s }
%struct.__pthread_cond_s = type { %union.__atomic_wide_counter, %union.__atomic_wide_counter, [2 x i32], [2 x i32], i32, i32, [2 x i32] }
%union.__atomic_wide_counter = type { i64 }
%"class.rocksdb::Status" = type { i8, i8, i8, i8, i8, i8, %"class.std::unique_ptr" }
%"class.std::unique_ptr" = type { %"struct.std::__uniq_ptr_data" }
%"struct.std::__uniq_ptr_data" = type { %"class.std::__uniq_ptr_impl" }
%"class.std::__uniq_ptr_impl" = type { %"class.std::tuple" }
%"class.std::tuple" = type { %"struct.std::_Tuple_impl" }
%"struct.std::_Tuple_impl" = type { %"struct.std::_Head_base.4" }
%"struct.std::_Head_base.4" = type { ptr }
%"class.std::unique_lock" = type <{ ptr, i8, [7 x i8] }>

; Function Attrs: mustprogress nounwind uwtable
define linkonce_odr void @_ZNSt10_Head_baseILm1ESt14default_deleteIA_KcELb1EEC2Ev(ptr noundef nonnull align 1 dereferenceable(1) %this) unnamed_addr #2 comdat align 2 {
entry:
  %this.addr = alloca ptr, align 8
  store ptr %this, ptr %this.addr, align 8
  ret void
}

; Function Attrs: mustprogress nounwind uwtable
define linkonce_odr void @_ZNSt10_Head_baseILm0EPKcLb0EEC2Ev(ptr noundef nonnull align 8 dereferenceable(8) %this) unnamed_addr #2 comdat align 2 {
entry:
  %this.addr = alloca ptr, align 8
  store ptr %this, ptr %this.addr, align 8
  %this1 = load ptr, ptr %this.addr, align 8
  %_M_head_impl = getelementptr inbounds %"struct.std::_Head_base.4", ptr %this1, i32 0, i32 0
  store ptr null, ptr %_M_head_impl, align 8
  ret void
}

; Function Attrs: mustprogress uwtable
define linkonce_odr void @_ZNSt11_Tuple_implILm1EJSt14default_deleteIA_KcEEEC2Ev(ptr noundef nonnull align 1 dereferenceable(1) %this) unnamed_addr #0 comdat align 2 {
entry:
  %this.addr = alloca ptr, align 8
  store ptr %this, ptr %this.addr, align 8
  %this1 = load ptr, ptr %this.addr, align 8
  call void @_ZNSt10_Head_baseILm1ESt14default_deleteIA_KcELb1EEC2Ev(ptr noundef nonnull align 1 dereferenceable(1) %this1)
  ret void
}

; Function Attrs: mustprogress uwtable
define linkonce_odr void @_ZNSt11_Tuple_implILm0EJPKcSt14default_deleteIA_S0_EEEC2Ev(ptr noundef nonnull align 8 dereferenceable(8) %this) unnamed_addr #0 comdat align 2 {
entry:
  %this.addr = alloca ptr, align 8
  store ptr %this, ptr %this.addr, align 8
  %this1 = load ptr, ptr %this.addr, align 8
  call void @_ZNSt11_Tuple_implILm1EJSt14default_deleteIA_KcEEEC2Ev(ptr noundef nonnull align 1 dereferenceable(1) %this1)
  call void @_ZNSt10_Head_baseILm0EPKcLb0EEC2Ev(ptr noundef nonnull align 8 dereferenceable(8) %this1)
  ret void
}

; Function Attrs: mustprogress nounwind uwtable
define linkonce_odr void @_ZNSt5tupleIJPKcSt14default_deleteIA_S0_EEEC2ILb1ETnNSt9enable_ifIXclsr17_TupleConstraintsIXT_ES1_S4_EE37__is_implicitly_default_constructibleEEbE4typeELb1EEEv(ptr noundef nonnull align 8 dereferenceable(8) %this) unnamed_addr #2 comdat align 2 personality ptr @__gxx_personality_v0 {
entry:
  %this.addr = alloca ptr, align 8
  store ptr %this, ptr %this.addr, align 8
  %this1 = load ptr, ptr %this.addr, align 8
  invoke void @_ZNSt11_Tuple_implILm0EJPKcSt14default_deleteIA_S0_EEEC2Ev(ptr noundef nonnull align 8 dereferenceable(8) %this1)
          to label %invoke.cont unwind label %terminate.lpad

invoke.cont:                                      ; preds = %entry
  ret void

terminate.lpad:                                   ; preds = %entry
  %0 = landingpad { ptr, i32 }
          catch ptr null
  %1 = extractvalue { ptr, i32 } %0, 0
  call void @__clang_call_terminate(ptr %1) #15
  unreachable
}

; Function Attrs: mustprogress nounwind uwtable
define internal noundef i32 @_ZL18__gthread_active_pv() #2 {
entry:
  ret i32 1
}

; Function Attrs: mustprogress nounwind uwtable
define linkonce_odr void @_ZNSt15__uniq_ptr_implIKcSt14default_deleteIA_S0_EEC2Ev(ptr noundef nonnull align 8 dereferenceable(8) %this) unnamed_addr #2 comdat align 2 {
entry:
  %this.addr = alloca ptr, align 8
  store ptr %this, ptr %this.addr, align 8
  %this1 = load ptr, ptr %this.addr, align 8
  %_M_t = getelementptr inbounds %"class.std::__uniq_ptr_impl", ptr %this1, i32 0, i32 0
  call void @_ZNSt5tupleIJPKcSt14default_deleteIA_S0_EEEC2ILb1ETnNSt9enable_ifIXclsr17_TupleConstraintsIXT_ES1_S4_EE37__is_implicitly_default_constructibleEEbE4typeELb1EEEv(ptr noundef nonnull align 8 dereferenceable(8) %_M_t) #13
  ret void
}

; Function Attrs: mustprogress nounwind uwtable
define internal noundef i32 @_ZL22__gthread_mutex_unlockP15pthread_mutex_t(ptr noundef %__mutex) #2 {
entry:
  %retval = alloca i32, align 4
  %__mutex.addr = alloca ptr, align 8
  store ptr %__mutex, ptr %__mutex.addr, align 8
  %call = call noundef i32 @_ZL18__gthread_active_pv()
  %tobool = icmp ne i32 %call, 0
  br i1 %tobool, label %if.then, label %if.else

if.then:                                          ; preds = %entry
  %0 = load ptr, ptr %__mutex.addr, align 8
  %call1 = call i32 @pthread_mutex_unlock(ptr noundef %0) #13
  store i32 %call1, ptr %retval, align 4
  br label %return

if.else:                                          ; preds = %entry
  store i32 0, ptr %retval, align 4
  br label %return

return:                                           ; preds = %if.else, %if.then
  %1 = load i32, ptr %retval, align 4
  ret i32 %1
}

; Function Attrs: mustprogress nounwind uwtable
define linkonce_odr void @_ZNSt15__uniq_ptr_dataIKcSt14default_deleteIA_S0_ELb1ELb1EEC2Ev(ptr noundef nonnull align 8 dereferenceable(8) %this) unnamed_addr #2 comdat align 2 {
entry:
  %this.addr = alloca ptr, align 8
  store ptr %this, ptr %this.addr, align 8
  %this1 = load ptr, ptr %this.addr, align 8
  call void @_ZNSt15__uniq_ptr_implIKcSt14default_deleteIA_S0_EEC2Ev(ptr noundef nonnull align 8 dereferenceable(8) %this1) #13
  ret void
}

; Function Attrs: mustprogress uwtable
define linkonce_odr void @_ZNSt5mutex6unlockEv(ptr noundef nonnull align 8 dereferenceable(40) %this) #0 comdat align 2 {
entry:
  %this.addr = alloca ptr, align 8
  store ptr %this, ptr %this.addr, align 8
  %this1 = load ptr, ptr %this.addr, align 8
  %_M_mutex = getelementptr inbounds %"class.std::__mutex_base", ptr %this1, i32 0, i32 0
  %call = call noundef i32 @_ZL22__gthread_mutex_unlockP15pthread_mutex_t(ptr noundef %_M_mutex)
  ret void
}

; Function Attrs: mustprogress nounwind uwtable
define linkonce_odr void @_ZNSt10unique_ptrIA_KcSt14default_deleteIS1_EEC2IS3_vEEDn(ptr noundef nonnull align 8 dereferenceable(8) %this, ptr %0) unnamed_addr #2 comdat align 2 {
entry:
  %this.addr = alloca ptr, align 8
  %.addr = alloca ptr, align 8
  store ptr %this, ptr %this.addr, align 8
  store ptr %0, ptr %.addr, align 8
  %this1 = load ptr, ptr %this.addr, align 8
  %_M_t = getelementptr inbounds %"class.std::unique_ptr", ptr %this1, i32 0, i32 0
  call void @llvm.memset.p0.i64(ptr align 8 %_M_t, i8 0, i64 8, i1 false)
  call void @_ZNSt15__uniq_ptr_dataIKcSt14default_deleteIA_S0_ELb1ELb1EEC2Ev(ptr noundef nonnull align 8 dereferenceable(8) %_M_t) #13
  ret void
}

; Function Attrs: noreturn nounwind uwtable
define linkonce_odr hidden void @__clang_call_terminate(ptr noundef %0) #9 comdat {
  %2 = call ptr @__cxa_begin_catch(ptr %0) #13
  call void @_ZSt9terminatev() #15
  unreachable
}

; Function Attrs: mustprogress uwtable
define linkonce_odr void @_ZNSt11unique_lockISt5mutexE6unlockEv(ptr noundef nonnull align 8 dereferenceable(9) %this) #0 comdat align 2 {
entry:
  %this.addr = alloca ptr, align 8
  store ptr %this, ptr %this.addr, align 8
  %this1 = load ptr, ptr %this.addr, align 8
  %_M_owns = getelementptr inbounds %"class.std::unique_lock", ptr %this1, i32 0, i32 1
  %0 = load i8, ptr %_M_owns, align 8
  %tobool = trunc i8 %0 to i1
  br i1 %tobool, label %if.else, label %if.then

if.then:                                          ; preds = %entry
  call void @_ZSt20__throw_system_errori(i32 noundef 1) #14
  unreachable

if.else:                                          ; preds = %entry
  %_M_device = getelementptr inbounds %"class.std::unique_lock", ptr %this1, i32 0, i32 0
  %1 = load ptr, ptr %_M_device, align 8
  %tobool2 = icmp ne ptr %1, null
  br i1 %tobool2, label %if.then3, label %if.end

if.then3:                                         ; preds = %if.else
  %_M_device4 = getelementptr inbounds %"class.std::unique_lock", ptr %this1, i32 0, i32 0
  %2 = load ptr, ptr %_M_device4, align 8
  call void @_ZNSt5mutex6unlockEv(ptr noundef nonnull align 8 dereferenceable(40) %2)
  %_M_owns5 = getelementptr inbounds %"class.std::unique_lock", ptr %this1, i32 0, i32 1
  store i8 0, ptr %_M_owns5, align 8
  br label %if.end

if.end:                                           ; preds = %if.then3, %if.else
  br label %if.end6

if.end6:                                          ; preds = %if.end
  ret void
}

; Function Attrs: mustprogress nounwind uwtable
define linkonce_odr void @_ZN7rocksdb6StatusC2Ev(ptr noundef nonnull align 8 dereferenceable(16) %this) unnamed_addr #2 comdat align 2 {
entry:
  %this.addr = alloca ptr, align 8
  store ptr %this, ptr %this.addr, align 8
  %this1 = load ptr, ptr %this.addr, align 8
  %code_ = getelementptr inbounds %"class.rocksdb::Status", ptr %this1, i32 0, i32 0
  store i8 0, ptr %code_, align 8
  %subcode_ = getelementptr inbounds %"class.rocksdb::Status", ptr %this1, i32 0, i32 1
  store i8 0, ptr %subcode_, align 1
  %sev_ = getelementptr inbounds %"class.rocksdb::Status", ptr %this1, i32 0, i32 2
  store i8 0, ptr %sev_, align 2
  %retryable_ = getelementptr inbounds %"class.rocksdb::Status", ptr %this1, i32 0, i32 3
  store i8 0, ptr %retryable_, align 1
  %data_loss_ = getelementptr inbounds %"class.rocksdb::Status", ptr %this1, i32 0, i32 4
  store i8 0, ptr %data_loss_, align 4
  %scope_ = getelementptr inbounds %"class.rocksdb::Status", ptr %this1, i32 0, i32 5
  store i8 0, ptr %scope_, align 1
  %state_ = getelementptr inbounds %"class.rocksdb::Status", ptr %this1, i32 0, i32 6
  call void @_ZNSt10unique_ptrIA_KcSt14default_deleteIS1_EEC2IS3_vEEDn(ptr noundef nonnull align 8 dereferenceable(8) %state_, ptr null) #13
  ret void
}

; Function Attrs: mustprogress nounwind uwtable
define linkonce_odr void @_ZNSt11unique_lockISt5mutexED2Ev(ptr noundef nonnull align 8 dereferenceable(9) %this) unnamed_addr #2 comdat align 2 personality ptr @__gxx_personality_v0 {
entry:
  %this.addr = alloca ptr, align 8
  store ptr %this, ptr %this.addr, align 8
  %this1 = load ptr, ptr %this.addr, align 8
  %_M_owns = getelementptr inbounds %"class.std::unique_lock", ptr %this1, i32 0, i32 1
  %0 = load i8, ptr %_M_owns, align 8
  %tobool = trunc i8 %0 to i1
  br i1 %tobool, label %if.then, label %if.end

if.then:                                          ; preds = %entry
  invoke void @_ZNSt11unique_lockISt5mutexE6unlockEv(ptr noundef nonnull align 8 dereferenceable(9) %this1)
          to label %invoke.cont unwind label %terminate.lpad

invoke.cont:                                      ; preds = %if.then
  br label %if.end

if.end:                                           ; preds = %invoke.cont, %entry
  ret void

terminate.lpad:                                   ; preds = %if.then
  %1 = landingpad { ptr, i32 }
          catch ptr null
  %2 = extractvalue { ptr, i32 } %1, 0
  call void @__clang_call_terminate(ptr %2) #15
  unreachable
}

; Function Attrs: mustprogress uwtable
define linkonce_odr void @_ZN7rocksdb6Status2OKEv(ptr noalias sret(%"class.rocksdb::Status") align 8 %agg.result) #0 comdat align 2 {
entry:
  %result.ptr = alloca ptr, align 8
  store ptr %agg.result, ptr %result.ptr, align 8
  call void @_ZN7rocksdb6StatusC2Ev(ptr noundef nonnull align 8 dereferenceable(16) %agg.result)
  ret void
}

; Function Attrs: mustprogress nounwind uwtable
define linkonce_odr noundef ptr @_ZNSt11unique_lockISt5mutexE7releaseEv(ptr noundef nonnull align 8 dereferenceable(9) %this) #2 comdat align 2 {
entry:
  %this.addr = alloca ptr, align 8
  %__ret = alloca ptr, align 8
  store ptr %this, ptr %this.addr, align 8
  %this1 = load ptr, ptr %this.addr, align 8
  %_M_device = getelementptr inbounds %"class.std::unique_lock", ptr %this1, i32 0, i32 0
  %0 = load ptr, ptr %_M_device, align 8
  store ptr %0, ptr %__ret, align 8
  %_M_device2 = getelementptr inbounds %"class.std::unique_lock", ptr %this1, i32 0, i32 0
  store ptr null, ptr %_M_device2, align 8
  %_M_owns = getelementptr inbounds %"class.std::unique_lock", ptr %this1, i32 0, i32 1
  store i8 0, ptr %_M_owns, align 8
  %1 = load ptr, ptr %__ret, align 8
  ret ptr %1
}

; Function Attrs: mustprogress nounwind uwtable
define linkonce_odr void @_ZNSt11unique_lockISt5mutexEC2ERS0_St12adopt_lock_t(ptr noundef nonnull align 8 dereferenceable(9) %this, ptr noundef nonnull align 8 dereferenceable(40) %__m) unnamed_addr #2 comdat align 2 {
entry:
  %this.addr = alloca ptr, align 8
  %__m.addr = alloca ptr, align 8
  store ptr %this, ptr %this.addr, align 8
  store ptr %__m, ptr %__m.addr, align 8
  %this1 = load ptr, ptr %this.addr, align 8
  %_M_device = getelementptr inbounds %"class.std::unique_lock", ptr %this1, i32 0, i32 0
  %0 = load ptr, ptr %__m.addr, align 8
  store ptr %0, ptr %_M_device, align 8
  %_M_owns = getelementptr inbounds %"class.std::unique_lock", ptr %this1, i32 0, i32 1
  store i8 1, ptr %_M_owns, align 8
  ret void
}

; Function Attrs: mustprogress nounwind uwtable
define linkonce_odr noundef ptr @_ZNKSt12__shared_ptrIN7rocksdb18TransactionDBMutexELN9__gnu_cxx12_Lock_policyE2EE3getEv(ptr noundef nonnull align 8 dereferenceable(16) %this) #2 comdat align 2 {
entry:
  %this.addr = alloca ptr, align 8
  store ptr %this, ptr %this.addr, align 8
  %this1 = load ptr, ptr %this.addr, align 8
  %_M_ptr = getelementptr inbounds %"class.std::__shared_ptr", ptr %this1, i32 0, i32 0
  %0 = load ptr, ptr %_M_ptr, align 8
  ret ptr %0
}

; Function Attrs: mustprogress uwtable
define void @_ZN7rocksdb24TransactionDBCondVarImpl4WaitESt10shared_ptrINS_18TransactionDBMutexEE(ptr noalias sret(%"class.rocksdb::Status") align 8 %agg.result, ptr noundef nonnull align 8 dereferenceable(56) %this, ptr noundef %mutex) unnamed_addr #0 align 2 personality ptr @__gxx_personality_v0 {
entry:
  %result.ptr = alloca ptr, align 8
  %this.addr = alloca ptr, align 8
  %mutex.indirect_addr = alloca ptr, align 8
  %mutex_impl = alloca ptr, align 8
  %lock = alloca %"class.std::unique_lock", align 8
  %exn.slot = alloca ptr, align 8
  %ehselector.slot = alloca i32, align 4
  store ptr %agg.result, ptr %result.ptr, align 8
  store ptr %this, ptr %this.addr, align 8
  store ptr %mutex, ptr %mutex.indirect_addr, align 8
  %this1 = load ptr, ptr %this.addr, align 8
  %call = call noundef ptr @_ZNKSt12__shared_ptrIN7rocksdb18TransactionDBMutexELN9__gnu_cxx12_Lock_policyE2EE3getEv(ptr noundef nonnull align 8 dereferenceable(16) %mutex) #13
  store ptr %call, ptr %mutex_impl, align 8
  %0 = load ptr, ptr %mutex_impl, align 8
  %mutex_ = getelementptr inbounds %"class.rocksdb::TransactionDBMutexImpl", ptr %0, i32 0, i32 1
  call void @_ZNSt11unique_lockISt5mutexEC2ERS0_St12adopt_lock_t(ptr noundef nonnull align 8 dereferenceable(9) %lock, ptr noundef nonnull align 8 dereferenceable(40) %mutex_) #13
  %cv_ = getelementptr inbounds %"class.rocksdb::TransactionDBCondVarImpl", ptr %this1, i32 0, i32 1
  invoke void @_ZNSt18condition_variable4waitERSt11unique_lockISt5mutexE(ptr noundef nonnull align 8 dereferenceable(48) %cv_, ptr noundef nonnull align 8 dereferenceable(9) %lock)
          to label %invoke.cont unwind label %lpad

invoke.cont:                                      ; preds = %entry
  %call2 = call noundef ptr @_ZNSt11unique_lockISt5mutexE7releaseEv(ptr noundef nonnull align 8 dereferenceable(9) %lock) #13
  invoke void @_ZN7rocksdb6Status2OKEv(ptr sret(%"class.rocksdb::Status") align 8 %agg.result)
          to label %invoke.cont3 unwind label %lpad

invoke.cont3:                                     ; preds = %invoke.cont
  call void @_ZNSt11unique_lockISt5mutexED2Ev(ptr noundef nonnull align 8 dereferenceable(9) %lock) #13
  ret void

lpad:                                             ; preds = %invoke.cont, %entry
  %1 = landingpad { ptr, i32 }
          cleanup
  %2 = extractvalue { ptr, i32 } %1, 0
  store ptr %2, ptr %exn.slot, align 8
  %3 = extractvalue { ptr, i32 } %1, 1
  store i32 %3, ptr %ehselector.slot, align 4
  call void @_ZNSt11unique_lockISt5mutexED2Ev(ptr noundef nonnull align 8 dereferenceable(9) %lock) #13
  br label %eh.resume

eh.resume:                                        ; preds = %lpad
  %exn = load ptr, ptr %exn.slot, align 8
  %sel = load i32, ptr %ehselector.slot, align 4
  %lpad.val = insertvalue { ptr, i32 } poison, ptr %exn, 0
  %lpad.val4 = insertvalue { ptr, i32 } %lpad.val, i32 %sel, 1
  resume { ptr, i32 } %lpad.val4
}