; Function Attrs: mustprogress uwtable
define void @_ZN7rocksdb24TransactionDBCondVarImpl4WaitESt10shared_ptrINS_18TransactionDBMutexEE(ptr noalias nocapture writeonly sret(%"class.rocksdb::Status") align 8 %agg.result, ptr noundef nonnull align 8 dereferenceable(56) %this, ptr nocapture noundef readonly %mutex) unnamed_addr #0 align 2 personality ptr @__gxx_personality_v0 {
entry:
  %lock = alloca %"class.std::unique_lock", align 8
  %0 = load ptr, ptr %mutex, align 8
  %mutex_ = getelementptr inbounds i8, ptr %0, i64 8
  store ptr %mutex_, ptr %lock, align 8
  %_M_owns.i = getelementptr inbounds i8, ptr %lock, i64 8
  store i8 1, ptr %_M_owns.i, align 8
  %cv_ = getelementptr inbounds i8, ptr %this, i64 8
  invoke void @_ZNSt18condition_variable4waitERSt11unique_lockISt5mutexE(ptr noundef nonnull align 8 dereferenceable(48) %cv_, ptr noundef nonnull align 8 dereferenceable(9) %lock)
          to label %_ZNSt11unique_lockISt5mutexED2Ev.exit unwind label %lpad

_ZNSt11unique_lockISt5mutexED2Ev.exit:            ; preds = %entry
  %state_.i.i = getelementptr inbounds i8, ptr %agg.result, i64 8
  store ptr null, ptr %state_.i.i, align 8, !alias.scope !13
  call void @llvm.memset.p0.i64(ptr noundef nonnull align 8 dereferenceable(6) %agg.result, i8 0, i64 6, i1 false), !alias.scope !13
  ret void

lpad:                                             ; preds = %entry
  %1 = landingpad { ptr, i32 }
          cleanup
  %2 = load i8, ptr %_M_owns.i, align 8
  %3 = and i8 %2, 1
  %tobool.not.i4 = icmp eq i8 %3, 0
  br i1 %tobool.not.i4, label %_ZNSt11unique_lockISt5mutexED2Ev.exit9, label %if.else.i.i5

if.else.i.i5:                                     ; preds = %lpad
  %4 = load ptr, ptr %lock, align 8
  %tobool2.not.i.i6 = icmp eq ptr %4, null
  br i1 %tobool2.not.i.i6, label %_ZNSt11unique_lockISt5mutexED2Ev.exit9, label %if.then3.i.i7

if.then3.i.i7:                                    ; preds = %if.else.i.i5
  %call1.i.i.i.i8 = call noundef i32 @pthread_mutex_unlock(ptr noundef nonnull %4) #11
  br label %_ZNSt11unique_lockISt5mutexED2Ev.exit9

_ZNSt11unique_lockISt5mutexED2Ev.exit9:           ; preds = %lpad, %if.else.i.i5, %if.then3.i.i7
  resume { ptr, i32 } %1
}